; Function Attrs: nounwind uwtable
define internal void @dataSourceHandleCancelled(ptr readnone captures(none) %0, ptr noundef %1) #0 {
  %3 = load ptr, ptr getelementptr inbounds nuw (i8, ptr @_glfw, i64 137528), align 8, !tbaa !136
  %4 = load ptr, ptr getelementptr inbounds nuw (i8, ptr @_glfw, i64 137520), align 8, !tbaa !93
  %5 = tail call i32 %4(ptr noundef %1) #20
  %6 = tail call ptr (ptr, i32, ptr, i32, i32, ...) %3(ptr noundef %1, i32 noundef 1, ptr noundef null, i32 noundef %5, i32 noundef 1) #20
  %7 = load ptr, ptr getelementptr inbounds nuw (i8, ptr @_glfw, i64 134056), align 8, !tbaa !343
  %.not = icmp eq ptr %7, %1
  br i1 %.not, label %8, label %9

8:                                                ; preds = %2
  store ptr null, ptr getelementptr inbounds nuw (i8, ptr @_glfw, i64 134056), align 8, !tbaa !343
  br label %9

9:                                                ; preds = %2, %8
  ret void
}